target datalayout = "e-m:e-p270:32:32-p271:32:32-p272:64:64-i64:64-i128:128-f80:128-n8:16:32:64-S128"
target triple = "x86_64-pc-linux-gnu"

%struct.__loadu_si128 = type { <2 x i64> }
%struct.__storeu_si128 = type { <2 x i64> }

@VP8LPredictorsSub_C = external global [16 x ptr], align 16

; Function Attrs: alwaysinline nounwind uwtable
define internal void @_mm_storeu_si128(ptr noundef %0, <2 x i64> noundef %1) #3 {
  %3 = alloca ptr, align 8
  %4 = alloca <2 x i64>, align 16
  store ptr %0, ptr %3, align 8, !tbaa !3
  store <2 x i64> %1, ptr %4, align 16, !tbaa !11
  %5 = load <2 x i64>, ptr %4, align 16, !tbaa !11
  %6 = load ptr, ptr %3, align 8, !tbaa !3
  %7 = getelementptr inbounds nuw %struct.__storeu_si128, ptr %6, i32 0, i32 0
  store <2 x i64> %5, ptr %7, align 1, !tbaa !11
  ret void
}

; Function Attrs: alwaysinline nounwind uwtable
define internal <2 x i64> @_mm_sub_epi8(<2 x i64> noundef %0, <2 x i64> noundef %1) #3 {
  %3 = alloca <2 x i64>, align 16
  %4 = alloca <2 x i64>, align 16
  store <2 x i64> %0, ptr %3, align 16, !tbaa !11
  store <2 x i64> %1, ptr %4, align 16, !tbaa !11
  %5 = load <2 x i64>, ptr %3, align 16, !tbaa !11
  %6 = bitcast <2 x i64> %5 to <16 x i8>
  %7 = load <2 x i64>, ptr %4, align 16, !tbaa !11
  %8 = bitcast <2 x i64> %7 to <16 x i8>
  %9 = sub <16 x i8> %6, %8
  %10 = bitcast <16 x i8> %9 to <2 x i64>
  ret <2 x i64> %10
}

; Function Attrs: alwaysinline nounwind uwtable
define internal <2 x i64> @_mm_packus_epi16(<2 x i64> noundef %0, <2 x i64> noundef %1) #3 {
  %3 = alloca <2 x i64>, align 16
  %4 = alloca <2 x i64>, align 16
  store <2 x i64> %0, ptr %3, align 16, !tbaa !11
  store <2 x i64> %1, ptr %4, align 16, !tbaa !11
  %5 = load <2 x i64>, ptr %3, align 16, !tbaa !11
  %6 = bitcast <2 x i64> %5 to <8 x i16>
  %7 = load <2 x i64>, ptr %4, align 16, !tbaa !11
  %8 = bitcast <2 x i64> %7 to <8 x i16>
  %9 = call <16 x i8> @llvm.x86.sse2.packuswb.128(<8 x i16> %6, <8 x i16> %8)
  %10 = bitcast <16 x i8> %9 to <2 x i64>
  ret <2 x i64> %10
}

; Function Attrs: alwaysinline nounwind uwtable
define internal <2 x i64> @_mm_add_epi16(<2 x i64> noundef %0, <2 x i64> noundef %1) #3 {
  %3 = alloca <2 x i64>, align 16
  %4 = alloca <2 x i64>, align 16
  store <2 x i64> %0, ptr %3, align 16, !tbaa !11
  store <2 x i64> %1, ptr %4, align 16, !tbaa !11
  %5 = load <2 x i64>, ptr %3, align 16, !tbaa !11
  %6 = bitcast <2 x i64> %5 to <8 x i16>
  %7 = load <2 x i64>, ptr %4, align 16, !tbaa !11
  %8 = bitcast <2 x i64> %7 to <8 x i16>
  %9 = add <8 x i16> %6, %8
  %10 = bitcast <8 x i16> %9 to <2 x i64>
  ret <2 x i64> %10
}

; Function Attrs: alwaysinline nounwind uwtable
define internal <2 x i64> @_mm_sub_epi16(<2 x i64> noundef %0, <2 x i64> noundef %1) #3 {
  %3 = alloca <2 x i64>, align 16
  %4 = alloca <2 x i64>, align 16
  store <2 x i64> %0, ptr %3, align 16, !tbaa !11
  store <2 x i64> %1, ptr %4, align 16, !tbaa !11
  %5 = load <2 x i64>, ptr %3, align 16, !tbaa !11
  %6 = bitcast <2 x i64> %5 to <8 x i16>
  %7 = load <2 x i64>, ptr %4, align 16, !tbaa !11
  %8 = bitcast <2 x i64> %7 to <8 x i16>
  %9 = sub <8 x i16> %6, %8
  %10 = bitcast <8 x i16> %9 to <2 x i64>
  ret <2 x i64> %10
}

; Function Attrs: alwaysinline nounwind uwtable
define internal <2 x i64> @_mm_unpackhi_epi8(<2 x i64> noundef %0, <2 x i64> noundef %1) #3 {
  %3 = alloca <2 x i64>, align 16
  %4 = alloca <2 x i64>, align 16
  store <2 x i64> %0, ptr %3, align 16, !tbaa !11
  store <2 x i64> %1, ptr %4, align 16, !tbaa !11
  %5 = load <2 x i64>, ptr %3, align 16, !tbaa !11
  %6 = bitcast <2 x i64> %5 to <16 x i8>
  %7 = load <2 x i64>, ptr %4, align 16, !tbaa !11
  %8 = bitcast <2 x i64> %7 to <16 x i8>
  %9 = shufflevector <16 x i8> %6, <16 x i8> %8, <16 x i32> <i32 8, i32 24, i32 9, i32 25, i32 10, i32 26, i32 11, i32 27, i32 12, i32 28, i32 13, i32 29, i32 14, i32 30, i32 15, i32 31>
  %10 = bitcast <16 x i8> %9 to <2 x i64>
  ret <2 x i64> %10
}

; Function Attrs: alwaysinline nounwind uwtable
define internal <2 x i64> @_mm_unpacklo_epi8(<2 x i64> noundef %0, <2 x i64> noundef %1) #3 {
  %3 = alloca <2 x i64>, align 16
  %4 = alloca <2 x i64>, align 16
  store <2 x i64> %0, ptr %3, align 16, !tbaa !11
  store <2 x i64> %1, ptr %4, align 16, !tbaa !11
  %5 = load <2 x i64>, ptr %3, align 16, !tbaa !11
  %6 = bitcast <2 x i64> %5 to <16 x i8>
  %7 = load <2 x i64>, ptr %4, align 16, !tbaa !11
  %8 = bitcast <2 x i64> %7 to <16 x i8>
  %9 = shufflevector <16 x i8> %6, <16 x i8> %8, <16 x i32> <i32 0, i32 16, i32 1, i32 17, i32 2, i32 18, i32 3, i32 19, i32 4, i32 20, i32 5, i32 21, i32 6, i32 22, i32 7, i32 23>
  %10 = bitcast <16 x i8> %9 to <2 x i64>
  ret <2 x i64> %10
}

; Function Attrs: alwaysinline nounwind uwtable
define internal <2 x i64> @_mm_loadu_si128(ptr noundef %0) #3 {
  %2 = alloca ptr, align 8
  store ptr %0, ptr %2, align 8, !tbaa !3
  %3 = load ptr, ptr %2, align 8, !tbaa !3
  %4 = getelementptr inbounds nuw %struct.__loadu_si128, ptr %3, i32 0, i32 0
  %5 = load <2 x i64>, ptr %4, align 1, !tbaa !11
  ret <2 x i64> %5
}

; Function Attrs: alwaysinline nounwind uwtable
define internal <2 x i64> @_mm_setzero_si128() #3 {
  %1 = alloca <2 x i64>, align 16
  store <2 x i64> zeroinitializer, ptr %1, align 16, !tbaa !11
  %2 = load <2 x i64>, ptr %1, align 16, !tbaa !11
  ret <2 x i64> %2
}

; Function Attrs: nounwind uwtable
define internal void @PredictorSub12_SSE2(ptr noundef %0, ptr noundef %1, i32 noundef %2, ptr noalias noundef %3) #1 {
  %5 = alloca ptr, align 8
  %6 = alloca ptr, align 8
  %7 = alloca i32, align 4
  %8 = alloca ptr, align 8
  %9 = alloca i32, align 4
  %10 = alloca <2 x i64>, align 16
  %11 = alloca <2 x i64>, align 16
  %12 = alloca <2 x i64>, align 16
  %13 = alloca <2 x i64>, align 16
  %14 = alloca <2 x i64>, align 16
  %15 = alloca <2 x i64>, align 16
  %16 = alloca <2 x i64>, align 16
  %17 = alloca <2 x i64>, align 16
  %18 = alloca <2 x i64>, align 16
  %19 = alloca <2 x i64>, align 16
  %20 = alloca <2 x i64>, align 16
  %21 = alloca <2 x i64>, align 16
  %22 = alloca <2 x i64>, align 16
  %23 = alloca <2 x i64>, align 16
  %24 = alloca <2 x i64>, align 16
  %25 = alloca <2 x i64>, align 16
  %26 = alloca <2 x i64>, align 16
  store ptr %0, ptr %5, align 8, !tbaa !7
  store ptr %1, ptr %6, align 8, !tbaa !7
  store i32 %2, ptr %7, align 4, !tbaa !9
  store ptr %3, ptr %8, align 8, !tbaa !7
  call void @llvm.lifetime.start.p0(i64 4, ptr %9) #9
  call void @llvm.lifetime.start.p0(i64 16, ptr %10) #9
  %27 = call <2 x i64> @_mm_setzero_si128()
  store <2 x i64> %27, ptr %10, align 16, !tbaa !11
  store i32 0, ptr %9, align 4, !tbaa !9
  br label %28

28:                                               ; preds = %97, %4
  %29 = load i32, ptr %9, align 4, !tbaa !9
  %30 = add nsw i32 %29, 4
  %31 = load i32, ptr %7, align 4, !tbaa !9
  %32 = icmp sle i32 %30, %31
  br i1 %32, label %33, label %100

33:                                               ; preds = %28
  call void @llvm.lifetime.start.p0(i64 16, ptr %11) #9
  %34 = load ptr, ptr %5, align 8, !tbaa !7
  %35 = load i32, ptr %9, align 4, !tbaa !9
  %36 = sext i32 %35 to i64
  %37 = getelementptr inbounds i32, ptr %34, i64 %36
  %38 = call <2 x i64> @_mm_loadu_si128(ptr noundef %37)
  store <2 x i64> %38, ptr %11, align 16, !tbaa !11
  call void @llvm.lifetime.start.p0(i64 16, ptr %12) #9
  %39 = load ptr, ptr %5, align 8, !tbaa !7
  %40 = load i32, ptr %9, align 4, !tbaa !9
  %41 = sub nsw i32 %40, 1
  %42 = sext i32 %41 to i64
  %43 = getelementptr inbounds i32, ptr %39, i64 %42
  %44 = call <2 x i64> @_mm_loadu_si128(ptr noundef %43)
  store <2 x i64> %44, ptr %12, align 16, !tbaa !11
  call void @llvm.lifetime.start.p0(i64 16, ptr %13) #9
  %45 = load <2 x i64>, ptr %12, align 16, !tbaa !11
  %46 = load <2 x i64>, ptr %10, align 16, !tbaa !11
  %47 = call <2 x i64> @_mm_unpacklo_epi8(<2 x i64> noundef %45, <2 x i64> noundef %46)
  store <2 x i64> %47, ptr %13, align 16, !tbaa !11
  call void @llvm.lifetime.start.p0(i64 16, ptr %14) #9
  %48 = load <2 x i64>, ptr %12, align 16, !tbaa !11
  %49 = load <2 x i64>, ptr %10, align 16, !tbaa !11
  %50 = call <2 x i64> @_mm_unpackhi_epi8(<2 x i64> noundef %48, <2 x i64> noundef %49)
  store <2 x i64> %50, ptr %14, align 16, !tbaa !11
  call void @llvm.lifetime.start.p0(i64 16, ptr %15) #9
  %51 = load ptr, ptr %6, align 8, !tbaa !7
  %52 = load i32, ptr %9, align 4, !tbaa !9
  %53 = sext i32 %52 to i64
  %54 = getelementptr inbounds i32, ptr %51, i64 %53
  %55 = call <2 x i64> @_mm_loadu_si128(ptr noundef %54)
  store <2 x i64> %55, ptr %15, align 16, !tbaa !11
  call void @llvm.lifetime.start.p0(i64 16, ptr %16) #9
  %56 = load <2 x i64>, ptr %15, align 16, !tbaa !11
  %57 = load <2 x i64>, ptr %10, align 16, !tbaa !11
  %58 = call <2 x i64> @_mm_unpacklo_epi8(<2 x i64> noundef %56, <2 x i64> noundef %57)
  store <2 x i64> %58, ptr %16, align 16, !tbaa !11
  call void @llvm.lifetime.start.p0(i64 16, ptr %17) #9
  %59 = load <2 x i64>, ptr %15, align 16, !tbaa !11
  %60 = load <2 x i64>, ptr %10, align 16, !tbaa !11
  %61 = call <2 x i64> @_mm_unpackhi_epi8(<2 x i64> noundef %59, <2 x i64> noundef %60)
  store <2 x i64> %61, ptr %17, align 16, !tbaa !11
  call void @llvm.lifetime.start.p0(i64 16, ptr %18) #9
  %62 = load ptr, ptr %6, align 8, !tbaa !7
  %63 = load i32, ptr %9, align 4, !tbaa !9
  %64 = sub nsw i32 %63, 1
  %65 = sext i32 %64 to i64
  %66 = getelementptr inbounds i32, ptr %62, i64 %65
  %67 = call <2 x i64> @_mm_loadu_si128(ptr noundef %66)
  store <2 x i64> %67, ptr %18, align 16, !tbaa !11
  call void @llvm.lifetime.start.p0(i64 16, ptr %19) #9
  %68 = load <2 x i64>, ptr %18, align 16, !tbaa !11
  %69 = load <2 x i64>, ptr %10, align 16, !tbaa !11
  %70 = call <2 x i64> @_mm_unpacklo_epi8(<2 x i64> noundef %68, <2 x i64> noundef %69)
  store <2 x i64> %70, ptr %19, align 16, !tbaa !11
  call void @llvm.lifetime.start.p0(i64 16, ptr %20) #9
  %71 = load <2 x i64>, ptr %18, align 16, !tbaa !11
  %72 = load <2 x i64>, ptr %10, align 16, !tbaa !11
  %73 = call <2 x i64> @_mm_unpackhi_epi8(<2 x i64> noundef %71, <2 x i64> noundef %72)
  store <2 x i64> %73, ptr %20, align 16, !tbaa !11
  call void @llvm.lifetime.start.p0(i64 16, ptr %21) #9
  %74 = load <2 x i64>, ptr %16, align 16, !tbaa !11
  %75 = load <2 x i64>, ptr %19, align 16, !tbaa !11
  %76 = call <2 x i64> @_mm_sub_epi16(<2 x i64> noundef %74, <2 x i64> noundef %75)
  store <2 x i64> %76, ptr %21, align 16, !tbaa !11
  call void @llvm.lifetime.start.p0(i64 16, ptr %22) #9
  %77 = load <2 x i64>, ptr %17, align 16, !tbaa !11
  %78 = load <2 x i64>, ptr %20, align 16, !tbaa !11
  %79 = call <2 x i64> @_mm_sub_epi16(<2 x i64> noundef %77, <2 x i64> noundef %78)
  store <2 x i64> %79, ptr %22, align 16, !tbaa !11
  call void @llvm.lifetime.start.p0(i64 16, ptr %23) #9
  %80 = load <2 x i64>, ptr %13, align 16, !tbaa !11
  %81 = load <2 x i64>, ptr %21, align 16, !tbaa !11
  %82 = call <2 x i64> @_mm_add_epi16(<2 x i64> noundef %80, <2 x i64> noundef %81)
  store <2 x i64> %82, ptr %23, align 16, !tbaa !11
  call void @llvm.lifetime.start.p0(i64 16, ptr %24) #9
  %83 = load <2 x i64>, ptr %14, align 16, !tbaa !11
  %84 = load <2 x i64>, ptr %22, align 16, !tbaa !11
  %85 = call <2 x i64> @_mm_add_epi16(<2 x i64> noundef %83, <2 x i64> noundef %84)
  store <2 x i64> %85, ptr %24, align 16, !tbaa !11
  call void @llvm.lifetime.start.p0(i64 16, ptr %25) #9
  %86 = load <2 x i64>, ptr %23, align 16, !tbaa !11
  %87 = load <2 x i64>, ptr %24, align 16, !tbaa !11
  %88 = call <2 x i64> @_mm_packus_epi16(<2 x i64> noundef %86, <2 x i64> noundef %87)
  store <2 x i64> %88, ptr %25, align 16, !tbaa !11
  call void @llvm.lifetime.start.p0(i64 16, ptr %26) #9
  %89 = load <2 x i64>, ptr %11, align 16, !tbaa !11
  %90 = load <2 x i64>, ptr %25, align 16, !tbaa !11
  %91 = call <2 x i64> @_mm_sub_epi8(<2 x i64> noundef %89, <2 x i64> noundef %90)
  store <2 x i64> %91, ptr %26, align 16, !tbaa !11
  %92 = load ptr, ptr %8, align 8, !tbaa !7
  %93 = load i32, ptr %9, align 4, !tbaa !9
  %94 = sext i32 %93 to i64
  %95 = getelementptr inbounds i32, ptr %92, i64 %94
  %96 = load <2 x i64>, ptr %26, align 16, !tbaa !11
  call void @_mm_storeu_si128(ptr noundef %95, <2 x i64> noundef %96)
  call void @llvm.lifetime.end.p0(i64 16, ptr %26) #9
  call void @llvm.lifetime.end.p0(i64 16, ptr %25) #9
  call void @llvm.lifetime.end.p0(i64 16, ptr %24) #9
  call void @llvm.lifetime.end.p0(i64 16, ptr %23) #9
  call void @llvm.lifetime.end.p0(i64 16, ptr %22) #9
  call void @llvm.lifetime.end.p0(i64 16, ptr %21) #9
  call void @llvm.lifetime.end.p0(i64 16, ptr %20) #9
  call void @llvm.lifetime.end.p0(i64 16, ptr %19) #9
  call void @llvm.lifetime.end.p0(i64 16, ptr %18) #9
  call void @llvm.lifetime.end.p0(i64 16, ptr %17) #9
  call void @llvm.lifetime.end.p0(i64 16, ptr %16) #9
  call void @llvm.lifetime.end.p0(i64 16, ptr %15) #9
  call void @llvm.lifetime.end.p0(i64 16, ptr %14) #9
  call void @llvm.lifetime.end.p0(i64 16, ptr %13) #9
  call void @llvm.lifetime.end.p0(i64 16, ptr %12) #9
  call void @llvm.lifetime.end.p0(i64 16, ptr %11) #9
  br label %97

97:                                               ; preds = %33
  %98 = load i32, ptr %9, align 4, !tbaa !9
  %99 = add nsw i32 %98, 4
  store i32 %99, ptr %9, align 4, !tbaa !9
  br label %28, !llvm.loop !53

100:                                              ; preds = %28
  %101 = load i32, ptr %9, align 4, !tbaa !9
  %102 = load i32, ptr %7, align 4, !tbaa !9
  %103 = icmp ne i32 %101, %102
  br i1 %103, label %104, label %121

104:                                              ; preds = %100
  %105 = load ptr, ptr getelementptr inbounds ([16 x ptr], ptr @VP8LPredictorsSub_C, i64 0, i64 12), align 16, !tbaa !3
  %106 = load ptr, ptr %5, align 8, !tbaa !7
  %107 = load i32, ptr %9, align 4, !tbaa !9
  %108 = sext i32 %107 to i64
  %109 = getelementptr inbounds i32, ptr %106, i64 %108
  %110 = load ptr, ptr %6, align 8, !tbaa !7
  %111 = load i32, ptr %9, align 4, !tbaa !9
  %112 = sext i32 %111 to i64
  %113 = getelementptr inbounds i32, ptr %110, i64 %112
  %114 = load i32, ptr %7, align 4, !tbaa !9
  %115 = load i32, ptr %9, align 4, !tbaa !9
  %116 = sub nsw i32 %114, %115
  %117 = load ptr, ptr %8, align 8, !tbaa !7
  %118 = load i32, ptr %9, align 4, !tbaa !9
  %119 = sext i32 %118 to i64
  %120 = getelementptr inbounds i32, ptr %117, i64 %119
  call void %105(ptr noundef %109, ptr noundef %113, i32 noundef %116, ptr noundef %120)
  br label %121

121:                                              ; preds = %104, %100
  call void @llvm.lifetime.end.p0(i64 16, ptr %10) #9
  call void @llvm.lifetime.end.p0(i64 4, ptr %9) #9
  ret void
}