; Function Attrs: nounwind uwtable
define internal void @PredictorSub12_SSE2(ptr noundef %0, ptr noundef %1, i32 noundef %2, ptr noalias noundef %3) #1 {
  %.not51 = icmp slt i32 %2, 4
  br i1 %.not51, label %._crit_edge, label %.lr.ph.preheader

.lr.ph.preheader:                                 ; preds = %4
  %5 = zext nneg i32 %2 to i64
  br label %.lr.ph

.lr.ph:                                           ; preds = %.lr.ph.preheader, %.lr.ph
  %indvars.iv53 = phi i64 [ 0, %.lr.ph.preheader ], [ %indvars.iv.next54, %.lr.ph ]
  %indvars.iv = phi i64 [ 4, %.lr.ph.preheader ], [ %indvars.iv.next, %.lr.ph ]
  %6 = getelementptr inbounds nuw i32, ptr %0, i64 %indvars.iv53
  %7 = load <16 x i8>, ptr %6, align 1, !tbaa !7
  %8 = add nsw i64 %indvars.iv53, -1
  %9 = getelementptr inbounds i32, ptr %0, i64 %8
  %10 = load <16 x i8>, ptr %9, align 1, !tbaa !7
  %11 = shufflevector <16 x i8> %10, <16 x i8> <i8 0, i8 0, i8 0, i8 0, i8 0, i8 0, i8 0, i8 0, i8 poison, i8 poison, i8 poison, i8 poison, i8 poison, i8 poison, i8 poison, i8 poison>, <16 x i32> <i32 0, i32 16, i32 1, i32 17, i32 2, i32 18, i32 3, i32 19, i32 4, i32 20, i32 5, i32 21, i32 6, i32 22, i32 7, i32 23>
  %12 = shufflevector <16 x i8> %10, <16 x i8> <i8 poison, i8 poison, i8 poison, i8 poison, i8 poison, i8 poison, i8 poison, i8 poison, i8 0, i8 0, i8 0, i8 0, i8 0, i8 0, i8 0, i8 0>, <16 x i32> <i32 8, i32 24, i32 9, i32 25, i32 10, i32 26, i32 11, i32 27, i32 12, i32 28, i32 13, i32 29, i32 14, i32 30, i32 15, i32 31>
  %13 = getelementptr inbounds nuw i32, ptr %1, i64 %indvars.iv53
  %14 = load <16 x i8>, ptr %13, align 1, !tbaa !7
  %15 = shufflevector <16 x i8> %14, <16 x i8> <i8 0, i8 0, i8 0, i8 0, i8 0, i8 0, i8 0, i8 0, i8 poison, i8 poison, i8 poison, i8 poison, i8 poison, i8 poison, i8 poison, i8 poison>, <16 x i32> <i32 0, i32 16, i32 1, i32 17, i32 2, i32 18, i32 3, i32 19, i32 4, i32 20, i32 5, i32 21, i32 6, i32 22, i32 7, i32 23>
  %16 = shufflevector <16 x i8> %14, <16 x i8> <i8 poison, i8 poison, i8 poison, i8 poison, i8 poison, i8 poison, i8 poison, i8 poison, i8 0, i8 0, i8 0, i8 0, i8 0, i8 0, i8 0, i8 0>, <16 x i32> <i32 8, i32 24, i32 9, i32 25, i32 10, i32 26, i32 11, i32 27, i32 12, i32 28, i32 13, i32 29, i32 14, i32 30, i32 15, i32 31>
  %17 = getelementptr inbounds i32, ptr %1, i64 %8
  %18 = load <16 x i8>, ptr %17, align 1, !tbaa !7
  %19 = shufflevector <16 x i8> %18, <16 x i8> <i8 0, i8 0, i8 0, i8 0, i8 0, i8 0, i8 0, i8 0, i8 poison, i8 poison, i8 poison, i8 poison, i8 poison, i8 poison, i8 poison, i8 poison>, <16 x i32> <i32 0, i32 16, i32 1, i32 17, i32 2, i32 18, i32 3, i32 19, i32 4, i32 20, i32 5, i32 21, i32 6, i32 22, i32 7, i32 23>
  %20 = shufflevector <16 x i8> %18, <16 x i8> <i8 poison, i8 poison, i8 poison, i8 poison, i8 poison, i8 poison, i8 poison, i8 poison, i8 0, i8 0, i8 0, i8 0, i8 0, i8 0, i8 0, i8 0>, <16 x i32> <i32 8, i32 24, i32 9, i32 25, i32 10, i32 26, i32 11, i32 27, i32 12, i32 28, i32 13, i32 29, i32 14, i32 30, i32 15, i32 31>
  %21 = bitcast <16 x i8> %15 to <8 x i16>
  %22 = bitcast <16 x i8> %19 to <8 x i16>
  %23 = bitcast <16 x i8> %16 to <8 x i16>
  %24 = bitcast <16 x i8> %20 to <8 x i16>
  %25 = bitcast <16 x i8> %11 to <8 x i16>
  %26 = add nuw nsw <8 x i16> %21, %25
  %27 = sub nsw <8 x i16> %26, %22
  %28 = bitcast <16 x i8> %12 to <8 x i16>
  %29 = add nuw nsw <8 x i16> %23, %28
  %30 = sub nsw <8 x i16> %29, %24
  %31 = tail call <16 x i8> @llvm.x86.sse2.packuswb.128(<8 x i16> %27, <8 x i16> %30)
  %32 = sub <16 x i8> %7, %31
  %33 = getelementptr inbounds nuw i32, ptr %3, i64 %indvars.iv53
  store <16 x i8> %32, ptr %33, align 1, !tbaa !7
  %indvars.iv.next = add nuw nsw i64 %indvars.iv, 4
  %.not = icmp samesign ugt i64 %indvars.iv.next, %5
  %indvars.iv.next54 = add nuw nsw i64 %indvars.iv53, 4
  br i1 %.not, label %._crit_edge.loopexit, label %.lr.ph, !llvm.loop !49

._crit_edge.loopexit:                             ; preds = %.lr.ph
  %34 = trunc nuw nsw i64 %indvars.iv to i32
  br label %._crit_edge

._crit_edge:                                      ; preds = %._crit_edge.loopexit, %4
  %.0.lcssa = phi i32 [ 0, %4 ], [ %34, %._crit_edge.loopexit ]
  %.not49 = icmp eq i32 %.0.lcssa, %2
  br i1 %.not49, label %42, label %35

35:                                               ; preds = %._crit_edge
  %36 = load ptr, ptr getelementptr inbounds nuw (i8, ptr @VP8LPredictorsSub_C, i64 96), align 16, !tbaa !3
  %37 = zext nneg i32 %.0.lcssa to i64
  %38 = getelementptr inbounds nuw i32, ptr %0, i64 %37
  %39 = getelementptr inbounds nuw i32, ptr %1, i64 %37
  %40 = sub nsw i32 %2, %.0.lcssa
  %41 = getelementptr inbounds nuw i32, ptr %3, i64 %37
  tail call void %36(ptr noundef %38, ptr noundef %39, i32 noundef %40, ptr noundef %41) #8
  br label %42

42:                                               ; preds = %35, %._crit_edge
  ret void
}